; Function Attrs: nounwind uwtable
define noalias nonnull ptr @lean_name_mk_string(ptr noundef %0, ptr noundef %1) local_unnamed_addr #0 {
  %3 = ptrtoint ptr %0 to i64
  %4 = and i64 %3, 1
  %.not.i.i.i = icmp eq i64 %4, 0
  br i1 %.not.i.i.i, label %8, label %5

5:                                                ; preds = %2
  %6 = lshr i64 %3, 1
  %7 = trunc i64 %6 to i32
  br label %l_Lean_Name_hash___override.exit.i

8:                                                ; preds = %2
  %9 = getelementptr i8, ptr %0, i64 4
  %.val.i.i.i = load i32, ptr %9, align 4
  %10 = lshr i32 %.val.i.i.i, 24
  br label %l_Lean_Name_hash___override.exit.i

l_Lean_Name_hash___override.exit.i:               ; preds = %8, %5
  %.0.i.i.i = phi i32 [ %7, %5 ], [ %10, %8 ]
  %11 = icmp eq i32 %.0.i.i.i, 0
  %12 = getelementptr inbounds nuw i8, ptr %0, i64 24
  %.0.in.i.i = select i1 %11, ptr @l_Lean_Name_hash___override___closed__1, ptr %12
  %.0.i.i = load i64, ptr %.0.in.i.i, align 8, !tbaa !17
  %13 = tail call i64 @lean_string_hash(ptr noundef %1) #11
  %14 = tail call i64 @lean_uint64_mix_hash(i64 noundef %.0.i.i, i64 noundef %13) #11
  tail call void @lean_inc_heartbeat() #11
  %15 = tail call noalias ptr @mi_malloc_small(i64 noundef 32) #11
  %16 = icmp eq ptr %15, null
  br i1 %16, label %17, label %l_Lean_Name_str___override.exit

17:                                               ; preds = %l_Lean_Name_hash___override.exit.i
  tail call void @lean_internal_panic_out_of_memory() #12
  unreachable

l_Lean_Name_str___override.exit:                  ; preds = %l_Lean_Name_hash___override.exit.i
  %18 = getelementptr inbounds nuw i8, ptr %15, i64 4
  store i32 1, ptr %15, align 4, !tbaa !4
  store i32 16908320, ptr %18, align 4
  %19 = getelementptr inbounds nuw i8, ptr %15, i64 8
  store ptr %0, ptr %19, align 8, !tbaa !10
  %20 = getelementptr inbounds nuw i8, ptr %15, i64 16
  store ptr %1, ptr %20, align 8, !tbaa !10
  %21 = getelementptr inbounds nuw i8, ptr %15, i64 24
  store i64 %14, ptr %21, align 8, !tbaa !17
  ret ptr %15
}